Certificate:
    Data:
        Version: 3 (0x2)
        Serial Number:
            9e:62:fc:4e:dd:f4:67:aa
        Signature Algorithm: sha1WithRSAEncryption
        Issuer: C=US, ST=Delaware, O=GENI LAMP, OU=Certificate Authority, CN=ca.pg.damlab.org/emailAddress=lamp@damsl.cis.udel.edu
        Validity
            Not Before: Sep 19 07:53:54 2010 GMT
            Not After : Sep 18 07:53:54 2013 GMT
        Subject: C=US, ST=Delaware, O=GENI LAMP, OU=Certificate Authority, CN=ca.pg.damlab.org/emailAddress=lamp@damsl.cis.udel.edu
        Subject Public Key Info:
            Public Key Algorithm: rsaEncryption
            RSA Public Key: (1024 bit)
                Modulus (1024 bit):
                    00:c2:14:d4:e0:b8:93:ce:6e:cb:81:22:dd:f1:51:
                    03:e6:a3:68:32:3d:36:eb:1c:e2:3d:cb:54:14:03:
                    f5:b9:20:2a:ef:7d:f5:3d:49:81:e6:6e:f9:fc:8e:
                    07:e8:76:21:50:d7:51:70:94:d5:dd:f5:bf:00:4d:
                    5d:4f:aa:dc:6a:66:90:32:4c:c8:0a:d2:af:8c:6d:
                    f5:a1:a9:76:f6:10:24:50:fd:d2:29:e5:4a:d0:7d:
                    08:86:0b:23:39:31:fb:07:fb:d7:25:d9:55:1e:6b:
                    b8:f2:e4:1c:f7:8b:bd:ea:ee:d0:02:c9:97:08:9d:
                    0d:29:7a:a5:0f:df:77:ed:eb
                Exponent: 65537 (0x10001)
        X509v3 extensions:
            X509v3 Subject Key Identifier: 
                A0:D2:7B:76:36:76:6A:99:D1:C9:45:F5:39:77:E6:21:5C:13:1B:7B
            X509v3 Authority Key Identifier: 
                keyid:A0:D2:7B:76:36:76:6A:99:D1:C9:45:F5:39:77:E6:21:5C:13:1B:7B
                DirName:/C=US/ST=Delaware/O=GENI LAMP/OU=Certificate Authority/CN=ca.pg.damlab.org/emailAddress=lamp@damsl.cis.udel.edu
                serial:9E:62:FC:4E:DD:F4:67:AA

            X509v3 Basic Constraints: 
                CA:TRUE
    Signature Algorithm: sha1WithRSAEncryption
        47:57:7c:25:32:13:3a:66:5e:20:07:19:6a:e4:55:6c:df:69:
        f2:98:d8:f0:92:b6:3c:d0:2c:4b:04:5e:73:78:a3:f8:0b:48:
        45:2c:22:07:e9:3d:7a:37:de:c7:da:4e:cf:37:01:86:67:e3:
        4b:16:ad:6b:0a:ac:ae:a5:bd:ae:56:3e:2b:b4:cc:9f:30:73:
        b4:17:9d:78:0e:a8:23:26:3e:13:17:f3:d4:1d:46:fc:e8:9d:
        ca:80:c1:56:3f:89:4c:8d:2d:f6:11:44:a5:96:21:17:b0:62:
        8c:b3:4e:88:27:a8:11:fc:b0:2b:ff:fb:c1:0c:fa:08:83:98:
        da:bd
-----BEGIN CERTIFICATE-----
MIIDrjCCAxegAwIBAgIJAJ5i/E7d9GeqMA0GCSqGSIb3DQEBBQUAMIGXMQswCQYD
VQQGEwJVUzERMA8GA1UECBMIRGVsYXdhcmUxEjAQBgNVBAoTCUdFTkkgTEFNUDEe
MBwGA1UECxMVQ2VydGlmaWNhdGUgQXV0aG9yaXR5MRkwFwYDVQQDExBjYS5wZy5k
YW1sYWIub3JnMSYwJAYJKoZIhvcNAQkBFhdsYW1wQGRhbXNsLmNpcy51ZGVsLmVk
dTAeFw0xMDA5MTkwNzUzNTRaFw0xMzA5MTgwNzUzNTRaMIGXMQswCQYDVQQGEwJV
UzERMA8GA1UECBMIRGVsYXdhcmUxEjAQBgNVBAoTCUdFTkkgTEFNUDEeMBwGA1UE
CxMVQ2VydGlmaWNhdGUgQXV0aG9yaXR5MRkwFwYDVQQDExBjYS5wZy5kYW1sYWIu
b3JnMSYwJAYJKoZIhvcNAQkBFhdsYW1wQGRhbXNsLmNpcy51ZGVsLmVkdTCBnzAN
BgkqhkiG9w0BAQEFAAOBjQAwgYkCgYEAwhTU4LiTzm7LgSLd8VED5qNoMj026xzi
PctUFAP1uSAq7331PUmB5m75/I4H6HYhUNdRcJTV3fW/AE1dT6rcamaQMkzICtKv
jG31oal29hAkUP3SKeVK0H0IhgsjOTH7B/vXJdlVHmu48uQc94u96u7QAsmXCJ0N
KXqlD9937esCAwEAAaOB/zCB/DAdBgNVHQ4EFgQUoNJ7djZ2apnRyUX1OXfmIVwT
G3swgcwGA1UdIwSBxDCBwYAUoNJ7djZ2apnRyUX1OXfmIVwTG3uhgZ2kgZowgZcx
CzAJBgNVBAYTAlVTMREwDwYDVQQIEwhEZWxhd2FyZTESMBAGA1UEChMJR0VOSSBM
QU1QMR4wHAYDVQQLExVDZXJ0aWZpY2F0ZSBBdXRob3JpdHkxGTAXBgNVBAMTEGNh
LnBnLmRhbWxhYi5vcmcxJjAkBgkqhkiG9w0BCQEWF2xhbXBAZGFtc2wuY2lzLnVk
ZWwuZWR1ggkAnmL8Tt30Z6owDAYDVR0TBAUwAwEB/zANBgkqhkiG9w0BAQUFAAOB
gQBHV3wlMhM6Zl4gBxlq5FVs32nymNjwkrY80CxLBF5zeKP4C0hFLCIH6T16N97H
2k7PNwGGZ+NLFq1rCqyupb2uVj4rtMyfMHO0F514DqgjJj4TF/PUHUb86J3KgMFW
P4lMjS32EUSlliEXsGKMs06IJ6gR/LAr//vBDPoIg5javQ==
-----END CERTIFICATE-----
